target datalayout = "e-m:e-p270:32:32-p271:32:32-p272:64:64-i64:64-i128:128-f80:128-n8:16:32:64-S128"
target triple = "x86_64-pc-linux-gnu"

%struct._object = type { i64, ptr }
%struct._longobject = type { %struct.PyVarObject, [1 x i32] }
%struct.PyVarObject = type { %struct._object, i64 }
%"class.nanobind::handle" = type { ptr }
%class.anon.38 = type { i8 }
%struct.capture.37 = type { ptr }
%"struct.nanobind::detail::tuple.40" = type { %"struct.nanobind::detail::tuple.41", %"struct.nanobind::detail::type_caster" }
%"struct.nanobind::detail::tuple.41" = type { %"struct.nanobind::detail::type_caster" }
%"struct.nanobind::detail::type_caster" = type { %"struct.nanobind::detail::type_caster_base" }
%"struct.nanobind::detail::type_caster_base" = type { ptr }

@_ZTIZL29nanobind_init_test_typing_extRN8nanobind7module_EE3Foo = internal constant { ptr, ptr } { ptr getelementptr inbounds (ptr, ptr @_ZTVN10__cxxabiv117__class_type_infoE, i64 2), ptr @_ZTSZL29nanobind_init_test_typing_extRN8nanobind7module_EE3Foo }, align 8
@_Py_TrueStruct = external global %struct._longobject, align 8
@_Py_FalseStruct = external global %struct._longobject, align 8

; Function Attrs: inlinehint mustprogress nounwind optsize uwtable
define internal void @_ZL10_Py_INCREFP7_object(ptr noundef %0) #11 {
  %2 = alloca ptr, align 8
  store ptr %0, ptr %2, align 8, !tbaa !3
  %3 = load ptr, ptr %2, align 8, !tbaa !3
  %4 = getelementptr inbounds nuw %struct._object, ptr %3, i32 0, i32 0
  %5 = load i64, ptr %4, align 8, !tbaa !26
  %6 = add nsw i64 %5, 1
  store i64 %6, ptr %4, align 8, !tbaa !26
  ret void
}

; Function Attrs: inlinehint mustprogress nounwind optsize uwtable
define internal void @_ZL11_Py_XINCREFP7_object(ptr noundef %0) #11 {
  %2 = alloca ptr, align 8
  store ptr %0, ptr %2, align 8, !tbaa !3
  %3 = load ptr, ptr %2, align 8, !tbaa !3
  %4 = icmp ne ptr %3, null
  br i1 %4, label %5, label %7

5:                                                ; preds = %1
  %6 = load ptr, ptr %2, align 8, !tbaa !3
  call void @_ZL10_Py_INCREFP7_object(ptr noundef %6) #13
  br label %7

7:                                                ; preds = %5, %1
  ret void
}

; Function Attrs: noinline noreturn nounwind optsize uwtable
define linkonce_odr hidden void @__clang_call_terminate(ptr noundef %0) #7 comdat {
  %2 = call ptr @__cxa_begin_catch(ptr %0) #14
  call void @_ZSt9terminatev() #16
  unreachable
}

; Function Attrs: mustprogress nounwind optsize uwtable
define linkonce_odr hidden noundef nonnull align 8 dereferenceable(8) ptr @_ZNKR8nanobind6handle7inc_refEv(ptr noundef nonnull align 8 dereferenceable(8) %0) #8 comdat align 2 personality ptr @__gxx_personality_v0 {
  %2 = alloca ptr, align 8
  store ptr %0, ptr %2, align 8, !tbaa !12
  %3 = load ptr, ptr %2, align 8
  %4 = getelementptr inbounds nuw %"class.nanobind::handle", ptr %3, i32 0, i32 0
  %5 = load ptr, ptr %4, align 8, !tbaa !14
  invoke void @_ZL11_Py_XINCREFP7_object(ptr noundef %5) #13
          to label %6 unwind label %7

6:                                                ; preds = %1
  ret ptr %3

7:                                                ; preds = %1
  %8 = landingpad { ptr, i32 }
          catch ptr null
  %9 = extractvalue { ptr, i32 } %8, 0
  call void @__clang_call_terminate(ptr %9) #16
  unreachable
}

; Function Attrs: alwaysinline mustprogress nounwind optsize uwtable
define internal noundef nonnull align 8 dereferenceable(8) ptr @_ZN8nanobind6detail5tupleIJNS0_11type_casterIZL29nanobind_init_test_typing_extRNS_7module_EE3FooiEEEE3getILm0EEERDav(ptr noundef nonnull align 8 dereferenceable(8) %0) #5 align 2 {
  %2 = alloca ptr, align 8
  store ptr %0, ptr %2, align 8, !tbaa !190
  %3 = load ptr, ptr %2, align 8
  %4 = getelementptr inbounds nuw %"struct.nanobind::detail::tuple.41", ptr %3, i32 0, i32 0
  ret ptr %4
}

; Function Attrs: alwaysinline mustprogress nounwind optsize uwtable
define linkonce_odr hidden noundef ptr @_ZNK8nanobind6handle3ptrEv(ptr noundef nonnull align 8 dereferenceable(8) %0) #5 comdat align 2 {
  %2 = alloca ptr, align 8
  store ptr %0, ptr %2, align 8, !tbaa !12
  %3 = load ptr, ptr %2, align 8
  %4 = getelementptr inbounds nuw %"class.nanobind::handle", ptr %3, i32 0, i32 0
  %5 = load ptr, ptr %4, align 8, !tbaa !14
  ret ptr %5
}

; Function Attrs: mustprogress nounwind optsize uwtable
define linkonce_odr hidden ptr @_ZN8nanobind6detail11type_casterIbiE8from_cppEbNS_9rv_policyEPNS0_12cleanup_listE(i1 noundef zeroext %0, i32 noundef %1, ptr noundef %2) #8 comdat align 2 personality ptr @__gxx_personality_v0 {
  %4 = alloca %"class.nanobind::handle", align 8
  %5 = alloca i8, align 1
  %6 = alloca i32, align 4
  %7 = alloca ptr, align 8
  %8 = alloca %"class.nanobind::handle", align 8
  %9 = zext i1 %0 to i8
  store i8 %9, ptr %5, align 1, !tbaa !18
  store i32 %1, ptr %6, align 4, !tbaa !163
  store ptr %2, ptr %7, align 8, !tbaa !165
  call void @llvm.lifetime.start.p0(i64 8, ptr %8) #14
  %10 = load i8, ptr %5, align 1, !tbaa !18, !range !186, !noundef !187
  %11 = trunc i8 %10 to i1
  %12 = select i1 %11, ptr @_Py_TrueStruct, ptr @_Py_FalseStruct
  invoke void @_ZN8nanobind6handleC2EPK7_object(ptr noundef nonnull align 8 dereferenceable(8) %8, ptr noundef %12) #13
          to label %13 unwind label %17

13:                                               ; preds = %3
  %14 = call noundef nonnull align 8 dereferenceable(8) ptr @_ZNKR8nanobind6handle7inc_refEv(ptr noundef nonnull align 8 dereferenceable(8) %8) #15
  call void @llvm.memcpy.p0.p0.i64(ptr align 8 %4, ptr align 8 %14, i64 8, i1 false)
  call void @llvm.lifetime.end.p0(i64 8, ptr %8) #14
  %15 = getelementptr inbounds nuw %"class.nanobind::handle", ptr %4, i32 0, i32 0
  %16 = load ptr, ptr %15, align 8
  ret ptr %16

17:                                               ; preds = %3
  %18 = landingpad { ptr, i32 }
          catch ptr null
  %19 = extractvalue { ptr, i32 } %18, 0
  call void @__clang_call_terminate(ptr %19) #16
  unreachable
}

; Function Attrs: mustprogress optsize uwtable
define internal noundef nonnull align 1 dereferenceable(1) ptr @_ZN8nanobind6detail16type_caster_baseIZL29nanobind_init_test_typing_extRNS_7module_EE3FooEcvRS4_Ev(ptr noundef nonnull align 8 dereferenceable(8) %0) #0 align 2 {
  %2 = alloca ptr, align 8
  store ptr %0, ptr %2, align 8, !tbaa !184
  %3 = load ptr, ptr %2, align 8
  %4 = getelementptr inbounds nuw %"struct.nanobind::detail::type_caster_base", ptr %3, i32 0, i32 0
  %5 = load ptr, ptr %4, align 8, !tbaa !188
  call void @_ZN8nanobind6detail27raise_next_overload_if_nullEPv(ptr noundef %5) #13
  %6 = getelementptr inbounds nuw %"struct.nanobind::detail::type_caster_base", ptr %3, i32 0, i32 0
  %7 = load ptr, ptr %6, align 8, !tbaa !188
  ret ptr %7
}

; Function Attrs: alwaysinline mustprogress optsize uwtable
define internal noundef nonnull align 8 dereferenceable(8) ptr @_ZN8nanobind6detail5tupleIJNS0_11type_casterIZL29nanobind_init_test_typing_extRNS_7module_EE3FooiEES6_EE3getILm1EEERDav(ptr noundef nonnull align 8 dereferenceable(16) %0) #3 align 2 {
  %2 = alloca ptr, align 8
  store ptr %0, ptr %2, align 8, !tbaa !182
  %3 = load ptr, ptr %2, align 8
  %4 = call noundef nonnull align 8 dereferenceable(8) ptr @_ZN8nanobind6detail5tupleIJNS0_11type_casterIZL29nanobind_init_test_typing_extRNS_7module_EE3FooiEEEE3getILm0EEERDav(ptr noundef nonnull align 8 dereferenceable(8) %3) #13
  ret ptr %4
}

; Function Attrs: alwaysinline mustprogress nounwind optsize uwtable
define internal noundef zeroext i1 @_ZN8nanobind6detail16type_caster_baseIZL29nanobind_init_test_typing_extRNS_7module_EE3FooE11from_pythonENS_6handleEhPNS0_12cleanup_listE(ptr noundef nonnull align 8 dereferenceable(8) %0, ptr %1, i8 noundef zeroext %2, ptr noundef %3) #5 align 2 {
  %5 = alloca %"class.nanobind::handle", align 8
  %6 = alloca ptr, align 8
  %7 = alloca i8, align 1
  %8 = alloca ptr, align 8
  %9 = getelementptr inbounds nuw %"class.nanobind::handle", ptr %5, i32 0, i32 0
  store ptr %1, ptr %9, align 8
  store ptr %0, ptr %6, align 8, !tbaa !184
  store i8 %2, ptr %7, align 1, !tbaa !76
  store ptr %3, ptr %8, align 8, !tbaa !165
  %10 = load ptr, ptr %6, align 8
  %11 = call noundef ptr @_ZNK8nanobind6handle3ptrEv(ptr noundef nonnull align 8 dereferenceable(8) %5) #13
  %12 = load i8, ptr %7, align 1, !tbaa !76
  %13 = load ptr, ptr %8, align 8, !tbaa !165
  %14 = getelementptr inbounds nuw %"struct.nanobind::detail::type_caster_base", ptr %10, i32 0, i32 0
  %15 = call noundef zeroext i1 @_ZN8nanobind6detail11nb_type_getEPKSt9type_infoP7_objecthPNS0_12cleanup_listEPPv(ptr noundef @_ZTIZL29nanobind_init_test_typing_extRN8nanobind7module_EE3Foo, ptr noundef %11, i8 noundef zeroext %12, ptr noundef %13, ptr noundef %14) #15
  ret i1 %15
}

; Function Attrs: alwaysinline mustprogress nounwind optsize uwtable
define linkonce_odr hidden void @_ZN8nanobind6handleC2EPK7_object(ptr noundef nonnull align 8 dereferenceable(8) %0, ptr noundef %1) unnamed_addr #5 comdat align 2 {
  %3 = alloca ptr, align 8
  %4 = alloca ptr, align 8
  store ptr %0, ptr %3, align 8, !tbaa !12
  store ptr %1, ptr %4, align 8, !tbaa !3
  %5 = load ptr, ptr %3, align 8
  %6 = getelementptr inbounds nuw %"class.nanobind::handle", ptr %5, i32 0, i32 0
  %7 = load ptr, ptr %4, align 8, !tbaa !3
  store ptr %7, ptr %6, align 8, !tbaa !14
  ret void
}

; Function Attrs: alwaysinline mustprogress nounwind optsize uwtable
define internal noundef nonnull align 8 dereferenceable(8) ptr @_ZN8nanobind6detail5tupleIJNS0_11type_casterIZL29nanobind_init_test_typing_extRNS_7module_EE3FooiEES6_EE3getILm0EEERDav(ptr noundef nonnull align 8 dereferenceable(16) %0) #5 align 2 {
  %2 = alloca ptr, align 8
  store ptr %0, ptr %2, align 8, !tbaa !182
  %3 = load ptr, ptr %2, align 8
  %4 = getelementptr inbounds nuw %"struct.nanobind::detail::tuple.40", ptr %3, i32 0, i32 1
  ret ptr %4
}

; Function Attrs: alwaysinline mustprogress optsize uwtable
define internal noundef ptr @_ZZN8nanobind6detail11func_createILb0ELb1ERPFbRKZL29nanobind_init_test_typing_extRNS_7module_EE3FooS6_EbJS6_S6_EJLm0ELm1EEJNS_5scopeENS_4nameENS_9is_methodENS_11is_operatorENS_9rv_policyEEEEP7_objectOT1_PFT2_DpT3_ESt16integer_sequenceImJXspT4_EEEDpRKT5_ENKUlPvPSG_PhSE_PNS0_12cleanup_listEE_clESU_SV_SW_SE_SY_(ptr noundef nonnull align 1 dereferenceable(1) %0, ptr noundef %1, ptr noundef %2, ptr noundef %3, i32 noundef %4, ptr noundef %5) #3 align 2 {
  %7 = alloca ptr, align 8
  %8 = alloca ptr, align 8
  %9 = alloca ptr, align 8
  %10 = alloca ptr, align 8
  %11 = alloca ptr, align 8
  %12 = alloca i32, align 4
  %13 = alloca ptr, align 8
  %14 = alloca ptr, align 8
  %15 = alloca %"struct.nanobind::detail::tuple.40", align 8
  %16 = alloca %"class.nanobind::handle", align 8
  %17 = alloca %"class.nanobind::handle", align 8
  %18 = alloca i32, align 4
  %19 = alloca ptr, align 8
  %20 = alloca %"class.nanobind::handle", align 8
  store ptr %0, ptr %8, align 8, !tbaa !30
  store ptr %1, ptr %9, align 8, !tbaa !30
  store ptr %2, ptr %10, align 8, !tbaa !161
  store ptr %3, ptr %11, align 8, !tbaa !20
  store i32 %4, ptr %12, align 4, !tbaa !163
  store ptr %5, ptr %13, align 8, !tbaa !165
  call void @llvm.lifetime.start.p0(i64 8, ptr %14) #14
  %21 = load ptr, ptr %9, align 8, !tbaa !30
  store ptr %21, ptr %14, align 8, !tbaa !176
  call void @llvm.lifetime.start.p0(i64 16, ptr %15) #14
  %22 = call noundef nonnull align 8 dereferenceable(8) ptr @_ZN8nanobind6detail5tupleIJNS0_11type_casterIZL29nanobind_init_test_typing_extRNS_7module_EE3FooiEES6_EE3getILm0EEERDav(ptr noundef nonnull align 8 dereferenceable(16) %15) #13
  %23 = load ptr, ptr %10, align 8, !tbaa !161
  %24 = getelementptr inbounds nuw ptr, ptr %23, i64 0
  %25 = load ptr, ptr %24, align 8, !tbaa !3
  call void @_ZN8nanobind6handleC2EPK7_object(ptr noundef nonnull align 8 dereferenceable(8) %16, ptr noundef %25) #13
  %26 = load ptr, ptr %11, align 8, !tbaa !20
  %27 = getelementptr inbounds nuw i8, ptr %26, i64 0
  %28 = load i8, ptr %27, align 1, !tbaa !76
  %29 = load ptr, ptr %13, align 8, !tbaa !165
  %30 = getelementptr inbounds nuw %"class.nanobind::handle", ptr %16, i32 0, i32 0
  %31 = load ptr, ptr %30, align 8
  %32 = call noundef zeroext i1 @_ZN8nanobind6detail16type_caster_baseIZL29nanobind_init_test_typing_extRNS_7module_EE3FooE11from_pythonENS_6handleEhPNS0_12cleanup_listE(ptr noundef nonnull align 8 dereferenceable(8) %22, ptr %31, i8 noundef zeroext %28, ptr noundef %29) #15
  br i1 %32, label %33, label %45

33:                                               ; preds = %6
  %34 = call noundef nonnull align 8 dereferenceable(8) ptr @_ZN8nanobind6detail5tupleIJNS0_11type_casterIZL29nanobind_init_test_typing_extRNS_7module_EE3FooiEES6_EE3getILm1EEERDav(ptr noundef nonnull align 8 dereferenceable(16) %15) #13
  %35 = load ptr, ptr %10, align 8, !tbaa !161
  %36 = getelementptr inbounds nuw ptr, ptr %35, i64 1
  %37 = load ptr, ptr %36, align 8, !tbaa !3
  call void @_ZN8nanobind6handleC2EPK7_object(ptr noundef nonnull align 8 dereferenceable(8) %17, ptr noundef %37) #13
  %38 = load ptr, ptr %11, align 8, !tbaa !20
  %39 = getelementptr inbounds nuw i8, ptr %38, i64 1
  %40 = load i8, ptr %39, align 1, !tbaa !76
  %41 = load ptr, ptr %13, align 8, !tbaa !165
  %42 = getelementptr inbounds nuw %"class.nanobind::handle", ptr %17, i32 0, i32 0
  %43 = load ptr, ptr %42, align 8
  %44 = call noundef zeroext i1 @_ZN8nanobind6detail16type_caster_baseIZL29nanobind_init_test_typing_extRNS_7module_EE3FooE11from_pythonENS_6handleEhPNS0_12cleanup_listE(ptr noundef nonnull align 8 dereferenceable(8) %34, ptr %43, i8 noundef zeroext %40, ptr noundef %41) #15
  br i1 %44, label %46, label %45

45:                                               ; preds = %33, %6
  store ptr inttoptr (i64 1 to ptr), ptr %7, align 8
  store i32 1, ptr %18, align 4
  br label %61

46:                                               ; preds = %33
  call void @llvm.lifetime.start.p0(i64 8, ptr %19) #14
  call void @llvm.lifetime.start.p0(i64 8, ptr %20) #14
  %47 = load ptr, ptr %14, align 8, !tbaa !176
  %48 = getelementptr inbounds nuw %struct.capture.37, ptr %47, i32 0, i32 0
  %49 = load ptr, ptr %48, align 8, !tbaa !178
  %50 = call noundef nonnull align 8 dereferenceable(8) ptr @_ZN8nanobind6detail5tupleIJNS0_11type_casterIZL29nanobind_init_test_typing_extRNS_7module_EE3FooiEES6_EE3getILm0EEERDav(ptr noundef nonnull align 8 dereferenceable(16) %15) #13
  %51 = call noundef nonnull align 1 dereferenceable(1) ptr @_ZN8nanobind6detail16type_caster_baseIZL29nanobind_init_test_typing_extRNS_7module_EE3FooEcvRS4_Ev(ptr noundef nonnull align 8 dereferenceable(8) %50) #13
  %52 = call noundef nonnull align 8 dereferenceable(8) ptr @_ZN8nanobind6detail5tupleIJNS0_11type_casterIZL29nanobind_init_test_typing_extRNS_7module_EE3FooiEES6_EE3getILm1EEERDav(ptr noundef nonnull align 8 dereferenceable(16) %15) #13
  %53 = call noundef nonnull align 1 dereferenceable(1) ptr @_ZN8nanobind6detail16type_caster_baseIZL29nanobind_init_test_typing_extRNS_7module_EE3FooEcvRS4_Ev(ptr noundef nonnull align 8 dereferenceable(8) %52) #13
  %54 = call noundef zeroext i1 %49(ptr noundef nonnull align 1 dereferenceable(1) %51, ptr noundef nonnull align 1 dereferenceable(1) %53) #13
  %55 = load i32, ptr %12, align 4, !tbaa !163
  %56 = load ptr, ptr %13, align 8, !tbaa !165
  %57 = call ptr @_ZN8nanobind6detail11type_casterIbiE8from_cppEbNS_9rv_policyEPNS0_12cleanup_listE(i1 noundef zeroext %54, i32 noundef %55, ptr noundef %56) #15
  %58 = getelementptr inbounds nuw %"class.nanobind::handle", ptr %20, i32 0, i32 0
  store ptr %57, ptr %58, align 8
  %59 = call noundef ptr @_ZNK8nanobind6handle3ptrEv(ptr noundef nonnull align 8 dereferenceable(8) %20) #13
  store ptr %59, ptr %19, align 8, !tbaa !3
  call void @llvm.lifetime.end.p0(i64 8, ptr %20) #14
  %60 = load ptr, ptr %19, align 8, !tbaa !3
  store ptr %60, ptr %7, align 8
  store i32 1, ptr %18, align 4
  call void @llvm.lifetime.end.p0(i64 8, ptr %19) #14
  br label %61

61:                                               ; preds = %46, %45
  call void @llvm.lifetime.end.p0(i64 16, ptr %15) #14
  call void @llvm.lifetime.end.p0(i64 8, ptr %14) #14
  %62 = load ptr, ptr %7, align 8
  ret ptr %62
}

; Function Attrs: inlinehint mustprogress optsize uwtable
define internal noundef ptr @_ZZN8nanobind6detail11func_createILb0ELb1ERPFbRKZL29nanobind_init_test_typing_extRNS_7module_EE3FooS6_EbJS6_S6_EJLm0ELm1EEJNS_5scopeENS_4nameENS_9is_methodENS_11is_operatorENS_9rv_policyEEEEP7_objectOT1_PFT2_DpT3_ESt16integer_sequenceImJXspT4_EEEDpRKT5_ENUlPvPSG_PhSE_PNS0_12cleanup_listEE_8__invokeESU_SV_SW_SE_SY_(ptr noundef %0, ptr noundef %1, ptr noundef %2, i32 noundef %3, ptr noundef %4) #9 align 2 {
  %6 = alloca ptr, align 8
  %7 = alloca ptr, align 8
  %8 = alloca ptr, align 8
  %9 = alloca i32, align 4
  %10 = alloca ptr, align 8
  %11 = alloca %class.anon.38, align 1
  store ptr %0, ptr %6, align 8, !tbaa !30
  store ptr %1, ptr %7, align 8, !tbaa !161
  store ptr %2, ptr %8, align 8, !tbaa !20
  store i32 %3, ptr %9, align 4, !tbaa !163
  store ptr %4, ptr %10, align 8, !tbaa !165
  %12 = load ptr, ptr %6, align 8, !tbaa !30
  %13 = load ptr, ptr %7, align 8, !tbaa !161
  %14 = load ptr, ptr %8, align 8, !tbaa !20
  %15 = load i32, ptr %9, align 4, !tbaa !163
  %16 = load ptr, ptr %10, align 8, !tbaa !165
  %17 = call noundef ptr @_ZZN8nanobind6detail11func_createILb0ELb1ERPFbRKZL29nanobind_init_test_typing_extRNS_7module_EE3FooS6_EbJS6_S6_EJLm0ELm1EEJNS_5scopeENS_4nameENS_9is_methodENS_11is_operatorENS_9rv_policyEEEEP7_objectOT1_PFT2_DpT3_ESt16integer_sequenceImJXspT4_EEEDpRKT5_ENKUlPvPSG_PhSE_PNS0_12cleanup_listEE_clESU_SV_SW_SE_SY_(ptr noundef nonnull align 1 dereferenceable(1) %11, ptr noundef %12, ptr noundef %13, ptr noundef %14, i32 noundef %15, ptr noundef %16) #13
  ret ptr %17
}